; Function Attrs: mustprogress uwtable
define hidden noundef nonnull align 8 dereferenceable(32) ptr @_ZN6google8protobuf8internal10NameOfEnumB5cxx11EPKNS0_14EnumDescriptorEi(ptr noundef nonnull %0, i32 noundef %1) local_unnamed_addr #3 personality ptr @__gxx_personality_v0 {
  %3 = tail call noundef ptr @_ZNK6google8protobuf14EnumDescriptor17FindValueByNumberEi(ptr noundef nonnull align 8 dereferenceable(72) %0, i32 noundef %1)
  %4 = icmp eq ptr %3, null
  br i1 %4, label %5, label %9

5:                                                ; preds = %2
  %6 = load atomic i8, ptr @_ZN6google8protobuf8internal28init_protobuf_defaults_stateE acquire, align 1
  %7 = trunc i8 %6 to i1
  br i1 %7, label %_ZN6google8protobuf8internal14GetEmptyStringB5cxx11Ev.exit, label %8, !prof !16

8:                                                ; preds = %5
  tail call void @_ZN6google8protobuf8internal24InitProtobufDefaultsSlowEv()
  br label %_ZN6google8protobuf8internal14GetEmptyStringB5cxx11Ev.exit

9:                                                ; preds = %2
  %10 = getelementptr inbounds nuw i8, ptr %3, i64 8
  %11 = load ptr, ptr %10, align 8, !tbaa !17
  br label %_ZN6google8protobuf8internal14GetEmptyStringB5cxx11Ev.exit

_ZN6google8protobuf8internal14GetEmptyStringB5cxx11Ev.exit: ; preds = %8, %5, %9
  %12 = phi ptr [ %11, %9 ], [ @_ZN6google8protobuf8internal26fixed_address_empty_stringB5cxx11E, %5 ], [ @_ZN6google8protobuf8internal26fixed_address_empty_stringB5cxx11E, %8 ]
  ret ptr %12
}